EXPORTS
	_Z13NotifierArrayv @ 1 NONAME
	_ZTI13CLpdBaseModel @ 2 NONAME ; #<TI>#
	_ZTI13CLpdRequestAO @ 3 NONAME ; #<TI>#
	_ZTI18CLpdVerifierPlugin @ 4 NONAME ; #<TI>#
	_ZTI21CLpdQueryLauncherBase @ 5 NONAME ; #<TI>#
	_ZTI21CLpdVerifNotifLBModel @ 6 NONAME ; #<TI>#
	_ZTI22CLpdGlobalPluginDialog @ 7 NONAME ; #<TI>#
	_ZTI22CLpdRequestorProcessor @ 8 NONAME ; #<TI>#
	_ZTI25CLpdNotifierQueryLauncher @ 9 NONAME ; #<TI>#
	_ZTI25CLpdVerifierQueryLauncher @ 10 NONAME ; #<TI>#
	_ZTV13CLpdBaseModel @ 11 NONAME ; #<VT>#
	_ZTV13CLpdRequestAO @ 12 NONAME ; #<VT>#
	_ZTV18CLpdVerifierPlugin @ 13 NONAME ; #<VT>#
	_ZTV21CLpdQueryLauncherBase @ 14 NONAME ; #<VT>#
	_ZTV21CLpdVerifNotifLBModel @ 15 NONAME ; #<VT>#
	_ZTV22CLpdGlobalPluginDialog @ 16 NONAME ; #<VT>#
	_ZTV22CLpdRequestorProcessor @ 17 NONAME ; #<VT>#
	_ZTV25CLpdNotifierQueryLauncher @ 18 NONAME ; #<VT>#
	_ZTV25CLpdVerifierQueryLauncher @ 19 NONAME ; #<VT>#
	_ZTI23CLpdMessagePluginDialog @ 20 NONAME
	_ZTV23CLpdMessagePluginDialog @ 21 NONAME
	_ZTI21CLpdPeriodicProcessor @ 22 NONAME ; #<TI>#
	_ZTI23CLpdSUPLSettingsAdapter @ 23 NONAME ; #<TI>#
	_ZTI28CLpdVerifierSettingsLauncher @ 24 NONAME ; #<TI>#
	_ZTV21CLpdPeriodicProcessor @ 25 NONAME ; #<VT>#
	_ZTV23CLpdSUPLSettingsAdapter @ 26 NONAME ; #<VT>#
	_ZTV28CLpdVerifierSettingsLauncher @ 27 NONAME ; #<VT>#

