EXPORTS
	_ZN10CMnMapView10SetOptionsEm @ 1 NONAME
	_ZN10CMnMapView11NewChainedLER11CMnProvider @ 2 NONAME
	_ZN10CMnMapView11SetMapAreaLERK11TCoordinated @ 3 NONAME
	_ZN10CMnMapView12ResetMapAreaEv @ 4 NONAME
	_ZN10CMnMapView14SelectFromMapLER14TRequestStatus @ 5 NONAME
	_ZN10CMnMapView19AddLandmarksToShowLER13RPointerArrayI12CPosLandmarkE @ 6 NONAME
	_ZN10CMnMapView19AddLandmarksToShowLER6RArrayI6TPtrC8E @ 7 NONAME
	_ZN10CMnMapView19AddLandmarksToShowLERK7TDesC16R6RArrayImE @ 8 NONAME
	_ZNK10CMnMapView19SelectionResultTypeEv @ 9 NONAME
	_ZN10CMnMapView20ResetLandmarksToShowEv @ 10 NONAME
	_ZN10CMnMapView20ShowCurrentLocationLEv @ 11 NONAME
	_ZNK10CMnMapView21CurrentLocationOptionEv @ 12 NONAME
	_ZN10CMnMapView21SetCustomRequestTextLERK7TDesC16 @ 13 NONAME
	_ZN10CMnMapView24RetrieveSelectionResultLERi @ 14 NONAME
	_ZN10CMnMapView24RetrieveSelectionResultLERmRP7HBufC16 @ 15 NONAME
	_ZN10CMnMapView24RetrieveSelectionResultLEv @ 16 NONAME
	_ZN10CMnMapView24SetCurrentLocationOptionENS_22TCurrentLocationOptionE @ 17 NONAME
	_ZN10CMnMapView24SetUseDefaultRequestTextEv @ 18 NONAME
	_ZN10CMnMapView4NewLER11CMnProvider @ 19 NONAME
	_ZN10CMnMapView6CancelEv @ 20 NONAME
	_ZNK10CMnMapView7OptionsEv @ 21 NONAME
	_ZN10CMnMapView8ShowMapLEv @ 22 NONAME
	_ZN10CMnMapViewD0Ev @ 23 NONAME
	_ZN10CMnMapViewD1Ev @ 24 NONAME
	_ZN10CMnMapViewD2Ev @ 25 NONAME
	_ZN11CMnGeocoder10SetOptionsEm @ 26 NONAME
	_ZN11CMnGeocoder11NewChainedLER11CMnProvider @ 27 NONAME
	_ZN11CMnGeocoder24FindAddressByCoordinateLERK12CPosLandmarkR14TRequestStatus @ 28 NONAME
	_ZN11CMnGeocoder24FindCoordinateByAddressLERK12CPosLandmarkR14TRequestStatus @ 29 NONAME
	_ZN11CMnGeocoder24FindCoordinateByAddressLERK7TDesC16R14TRequestStatus @ 30 NONAME
	_ZN11CMnGeocoder24RetrieveGeocodingResultLER12CPosLandmark @ 31 NONAME
	_ZN11CMnGeocoder4NewLER11CMnProvider @ 32 NONAME
	_ZN11CMnGeocoder6CancelEv @ 33 NONAME
	_ZNK11CMnGeocoder7OptionsEv @ 34 NONAME
	_ZN11CMnGeocoderD0Ev @ 35 NONAME
	_ZN11CMnGeocoderD1Ev @ 36 NONAME
	_ZN11CMnGeocoderD2Ev @ 37 NONAME
	_ZN11CMnProviderD0Ev @ 38 NONAME
	_ZN11CMnProviderD1Ev @ 39 NONAME
	_ZN11CMnProviderD2Ev @ 40 NONAME
	_ZN12CMnNavigator11NavigateToLERK12CPosLandmark @ 41 NONAME
	_ZN12CMnNavigator11NewChainedLER11CMnProvider @ 42 NONAME
	_ZN12CMnNavigator4NewLER11CMnProvider @ 43 NONAME
	_ZN12CMnNavigatorD0Ev @ 44 NONAME
	_ZN12CMnNavigatorD1Ev @ 45 NONAME
	_ZN12CMnNavigatorD2Ev @ 46 NONAME
	_ZN16MnProviderFinder14FindProvidersLER13RPointerArrayI11CMnProviderE @ 47 NONAME
	_ZN16MnProviderFinder14FindProvidersLER13RPointerArrayI11CMnProviderEm @ 48 NONAME
	_ZNK11CMnProvider12GetShortNameER7TPtrC16 @ 49 NONAME
	_ZNK11CMnProvider13GetVendorNameER7TPtrC16 @ 50 NONAME
	_ZNK11CMnProvider17SupportedFeaturesENS_8TServiceE @ 51 NONAME
	_ZNK11CMnProvider17SupportedServicesEv @ 52 NONAME
	_ZNK11CMnProvider3UidEv @ 53 NONAME
	_ZNK11CMnProvider7GetNameER7TPtrC16 @ 54 NONAME
	_ZNK11CMnProvider7VersionEv @ 55 NONAME
	_ZNK25RMnGeocodingServiceClient10ServiceUidEv @ 56 NONAME
	_ZTI10CMnMapView @ 57 NONAME ; #<TI>#
	_ZTI11CMnGeocoder @ 58 NONAME ; #<TI>#
	_ZTI11CMnProvider @ 59 NONAME ; #<TI>#
	_ZTI12CMnNavigator @ 60 NONAME ; #<TI>#
	_ZTV10CMnMapView @ 61 NONAME ; #<VT>#
	_ZTV11CMnGeocoder @ 62 NONAME ; #<VT>#
	_ZTV11CMnProvider @ 63 NONAME ; #<VT>#
	_ZTV12CMnNavigator @ 64 NONAME ; #<VT>#
	_ZN7MnUtils26FindLocalizedResourceFileLER3RFsRK7TDesC16R4TBufILi256EE @ 65 NONAME
	_ZN7MnUtils17FindResourceFileLER3RFsRK7TDesC16R4TBufILi256EE @ 66 NONAME
	_ZN10CMnMapView16SetExitObserverLER25MAknServerAppExitObserver @ 67 NONAME
	_ZN10CMnMapView18RemoveExitObserverEv @ 68 NONAME
	_ZN11CMnGeocoder16SetExitObserverLER25MAknServerAppExitObserver @ 69 NONAME
	_ZN11CMnGeocoder18RemoveExitObserverEv @ 70 NONAME
	_ZN12CMnNavigator16SetExitObserverLER25MAknServerAppExitObserver @ 71 NONAME
	_ZN12CMnNavigator18RemoveExitObserverEv @ 72 NONAME
	_ZN11CMnMapImage12TargetOriginEv @ 73 NONAME
	_ZN11CMnMapImage14MapImageParamsEv @ 74 NONAME
	_ZN11CMnMapImage14SetShowOptionsERKm @ 75 NONAME
	_ZN11CMnMapImage15CancelRenderingEv @ 76 NONAME
	_ZN11CMnMapImage15SetTargetOriginERK6TPoint @ 77 NONAME
	_ZN11CMnMapImage17SetMapImageParamsER17TMnMapImageParams @ 78 NONAME
	_ZN11CMnMapImage19SupportedImageTypesEv @ 79 NONAME
	_ZN11CMnMapImage4NewLER11CMnProvider @ 80 NONAME
	_ZN11CMnMapImage7RenderLER10CFbsBitmapR14TRequestStatus @ 81 NONAME
	_ZN11CMnMapImage7RenderLER10CFbsBitmapR25MMnMapImageRenderCallback @ 82 NONAME
	_ZN11CMnMapImageD0Ev @ 83 NONAME
	_ZN11CMnMapImageD1Ev @ 84 NONAME
	_ZN11CMnMapImageD2Ev @ 85 NONAME
	_ZN17TMnMapImageParamsC1Ev @ 86 NONAME
	_ZN17TMnMapImageParamsC2Ev @ 87 NONAME
	_ZNK11CMnMapImage11ShowOptionsEv @ 88 NONAME
	_ZNK11CMnMapImage14MapImageParamsEv @ 89 NONAME
	_ZNK11CMnMapImage18GetImageCoordinateERK11TCoordinateR6TPoint @ 90 NONAME
	_ZNK11CMnMapImage18GetWorldCoordinateERK6TPointR11TCoordinate @ 91 NONAME
	_ZNK24RMnMapImageServiceClient10ServiceUidEv @ 92 NONAME
	_ZTI11CMnMapImage @ 93 NONAME ; #<TI>#
	_ZTV11CMnMapImage @ 94 NONAME ; #<VT>#
	_ZN11CMnMapImage16SetExitObserverLER25MAknServerAppExitObserver @ 95 NONAME
	_ZN11CMnMapImage18RemoveExitObserverEv @ 96 NONAME
	_ZN26CMnCoordinateConverterBaseC2Ev @ 97 NONAME
	_ZN26CMnCoordinateConverterBaseD0Ev @ 98 NONAME
	_ZN26CMnCoordinateConverterBaseD1Ev @ 99 NONAME
	_ZN26CMnCoordinateConverterBaseD2Ev @ 100 NONAME
	_ZNK26CMnCoordinateConverterBase14MapImageParamsEv @ 101 NONAME
	_ZTI26CMnCoordinateConverterBase @ 102 NONAME ; #<TI>#
	_ZTV26CMnCoordinateConverterBase @ 103 NONAME ; #<VT>#

