EXPORTS
	?ImplementationGroupProxy@@YAPBUTImplementationProxy@@AAH@Z @ 1 NONAME ; struct TImplementationProxy const * ImplementationGroupProxy(int &)
	?RunSessionL@COMASUPLProtocolManager@@UAEXPAVCSuplSessionBase@@AAVTRequestStatus@@ABVTDesC16@@HHHH@Z @ 2 NONAME ; void COMASUPLProtocolManager::RunSessionL(class CSuplSessionBase *, class TRequestStatus &, class TDesC16 const &, int, int, int, int)
	?IsUIActive@COMASuplSettings@@QBEHXZ @ 3 NONAME ; int COMASuplSettings::IsUIActive(void) const
	?CancelDeInitialize@COMASUPLProtocolManager@@UAEXXZ @ 4 NONAME ; void COMASUPLProtocolManager::CancelDeInitialize(void)
	?SetUIActive@COMASuplSettings@@QAEXH@Z @ 5 NONAME ; void COMASuplSettings::SetUIActive(int)
	??0COMASUPLProtocolManager@@IAE@XZ @ 6 NONAME ; COMASUPLProtocolManager::COMASUPLProtocolManager(void)
	?SetHSLPAddressFromIMSI@COMASuplSettings@@QAEXABVTDesC16@@@Z @ 7 NONAME ; void COMASuplSettings::SetHSLPAddressFromIMSI(class TDesC16 const &)
	?SLPAddressfromImsi@COMASuplSettings@@QBEABVTDesC8@@XZ @ 8 NONAME ; class TDesC8 const & COMASuplSettings::SLPAddressfromImsi(void) const
	?CancelInitialize@COMASUPLProtocolManager@@UAEXXZ @ 9 NONAME ; void COMASUPLProtocolManager::CancelInitialize(void)
	?SetHSLPAddress@COMASuplSettings@@QAEXABVTDesC16@@@Z @ 10 NONAME ; void COMASuplSettings::SetHSLPAddress(class TDesC16 const &)
	?DestroySession@COMASUPLProtocolManager@@UAEHPAVCSuplSessionBase@@@Z @ 11 NONAME ; int COMASUPLProtocolManager::DestroySession(class CSuplSessionBase *)
	?SetCommonConfig@COMASUPLProtocolManager@@UAEXAAPAVCOMASuplCommonConfig@@@Z @ 12 NONAME ; void COMASUPLProtocolManager::SetCommonConfig(class COMASuplCommonConfig * &)
	?RunSessionL@COMASUPLProtocolManager@@UAEXPAVCSuplSessionBase@@AAVTRequestStatus@@ABVTDesC16@@HHHAAVTSuplTerminalQop@@H@Z @ 13 NONAME ; void COMASUPLProtocolManager::RunSessionL(class CSuplSessionBase *, class TRequestStatus &, class TDesC16 const &, int, int, int, class TSuplTerminalQop &, int)
	??1COMASuplSettings@@UAE@XZ @ 14 NONAME ; COMASuplSettings::~COMASuplSettings(void)
	?IsHslpNull@COMASuplSettings@@QAEHXZ @ 15 NONAME ; int COMASuplSettings::IsHslpNull(void)
	?NotifyTriggerFiredL@COMASUPLProtocolManager@@UAEXPAVCSuplSessionBase@@AAVTRequestStatus@@AAVTSuplTriggerFireInfo@@@Z @ 16 NONAME ; void COMASUPLProtocolManager::NotifyTriggerFiredL(class CSuplSessionBase *, class TRequestStatus &, class TSuplTriggerFireInfo &)
	?IAPId@COMASuplSettings@@QBEHXZ @ 17 NONAME ; int COMASuplSettings::IAPId(void) const
	?DeInitialize@COMASUPLProtocolManager@@UAEXAAVTRequestStatus@@@Z @ 18 NONAME ; void COMASUPLProtocolManager::DeInitialize(class TRequestStatus &)
	?RunSuplTriggerSessionL@COMASUPLProtocolManager@@UAEXPAVCSuplSessionBase@@AAVTRequestStatus@@AAVTSuplTerminalPeriodicTrigger@@ABVTDesC16@@HHH@Z @ 19 NONAME ; void COMASUPLProtocolManager::RunSuplTriggerSessionL(class CSuplSessionBase *, class TRequestStatus &, class TSuplTerminalPeriodicTrigger &, class TDesC16 const &, int, int, int)
	?ConvertIAPNameToIdL@COMASuplSettings@@QAEHABVTDesC16@@AAK@Z @ 20 NONAME ; int COMASuplSettings::ConvertIAPNameToIdL(class TDesC16 const &, unsigned long &)
	?CreateNewSessionL@COMASUPLProtocolManager@@UAEPAVCSuplSessionBase@@W4TSuplReqType@CSUPLProtocolManagerBase@@HW4TSuplServiceType@RSuplTerminalSubSession@@@Z @ 21 NONAME ; class CSuplSessionBase * COMASUPLProtocolManager::CreateNewSessionL(enum CSUPLProtocolManagerBase::TSuplReqType, int, enum RSuplTerminalSubSession::TSuplServiceType)
	?SetIAPId@COMASuplSettings@@QAEXH@Z @ 22 NONAME ; void COMASuplSettings::SetIAPId(int)
	?ReadOMASuplSettingsL@COMASuplCommonConfig@@QAEXXZ @ 23 NONAME ; void COMASuplCommonConfig::ReadOMASuplSettingsL(void)
	?CancelRunSession@COMASUPLProtocolManager@@UAEXPAVCSuplSessionBase@@@Z @ 24 NONAME ; void COMASUPLProtocolManager::CancelRunSession(class CSuplSessionBase *)
	?SetSUPLUsage@COMASuplSettings@@QAEXAAW4TSuplSettingsUsage@CSuplSettings@@@Z @ 25 NONAME ; void COMASuplSettings::SetSUPLUsage(enum CSuplSettings::TSuplSettingsUsage &)
	??1COMASUPLProtocolManager@@UAE@XZ @ 26 NONAME ; COMASUPLProtocolManager::~COMASUPLProtocolManager(void)
	?HandleSuplMessageL@COMASUPLProtocolManager@@UAEXPAVCSuplSessionBase@@AAVTRequestStatus@@PAVHBufC8@@@Z @ 27 NONAME ; void COMASUPLProtocolManager::HandleSuplMessageL(class CSuplSessionBase *, class TRequestStatus &, class HBufC8 *)
	?GetSUPLMessageVersionL@COMASUPLProtocolManager@@UAEHAAHABVTDesC8@@@Z @ 28 NONAME ; int COMASUPLProtocolManager::GetSUPLMessageVersionL(int &, class TDesC8 const &)
	?ConstructL@COMASuplSettings@@AAEXXZ @ 29 NONAME ; void COMASuplSettings::ConstructL(void)
	?NewL@COMASUPLProtocolManager@@SAPAV1@XZ @ 30 NONAME ; class COMASUPLProtocolManager * COMASUPLProtocolManager::NewL(void)
	?HandlePacket@COMASUPLProtocolManager@@UAEXABVTDesC8@@I@Z @ 31 NONAME ; void COMASUPLProtocolManager::HandlePacket(class TDesC8 const &, unsigned int)
	?CancelSuplTriggerSession@COMASUPLProtocolManager@@UAEXPAVCSuplSessionBase@@@Z @ 32 NONAME ; void COMASUPLProtocolManager::CancelSuplTriggerSession(class CSuplSessionBase *)
	?InitializeL@COMASUPLProtocolManager@@UAEXPAVCSuplCommunicationManager@@AAVTRequestStatus@@@Z @ 33 NONAME ; void COMASUPLProtocolManager::InitializeL(class CSuplCommunicationManager *, class TRequestStatus &)
	?SUPLUsage@COMASuplSettings@@QBE?AW4TSuplSettingsUsage@CSuplSettings@@XZ @ 34 NONAME ; enum CSuplSettings::TSuplSettingsUsage COMASuplSettings::SUPLUsage(void) const
	?NewL@COMASuplCommonConfig@@SAPAV1@XZ @ 35 NONAME ; class COMASuplCommonConfig * COMASuplCommonConfig::NewL(void)
	?SLPAddress@COMASuplSettings@@QBEABVTDesC8@@XZ @ 36 NONAME ; class TDesC8 const & COMASuplSettings::SLPAddress(void) const
	?HandlePacketError@COMASUPLProtocolManager@@UAEXH@Z @ 37 NONAME ; void COMASUPLProtocolManager::HandlePacketError(int)
	?NewL@COMASuplSettings@@SAPAV1@XZ @ 38 NONAME ; class COMASuplSettings * COMASuplSettings::NewL(void)

