EXPORTS              
	??1CMnGeocoder@@UAE@XZ @ 1 NONAME ; CMnGeocoder::~CMnGeocoder(void)        
	??1CMnMapView@@UAE@XZ @ 2 NONAME ; CMnMapView::~CMnMapView(void)        
	??1CMnNavigator@@UAE@XZ @ 3 NONAME ; CMnNavigator::~CMnNavigator(void)        
	??1CMnProvider@@UAE@XZ @ 4 NONAME ; CMnProvider::~CMnProvider(void)        
	?AddLandmarksToShowL@CMnMapView@@QAEXAAV?$RArray@VTPtrC8@@@@@Z @ 5 NONAME ; void CMnMapView::AddLandmarksToShowL(class RArray<class TPtrC8> &)    
	?AddLandmarksToShowL@CMnMapView@@QAEXAAV?$RPointerArray@VCPosLandmark@@@@@Z @ 6 NONAME ; void CMnMapView::AddLandmarksToShowL(class RPointerArray<class CPosLandmark> &)    
	?AddLandmarksToShowL@CMnMapView@@QAEXABVTDesC16@@AAV?$RArray@K@@@Z @ 7 NONAME ; void CMnMapView::AddLandmarksToShowL(class TDesC16 const &, class RArray<unsigned long> &)
	?Cancel@CMnGeocoder@@QAEXXZ @ 8 NONAME ; void CMnGeocoder::Cancel(void)       
	?Cancel@CMnMapView@@QAEXXZ @ 9 NONAME ; void CMnMapView::Cancel(void)       
	?CurrentLocationOption@CMnMapView@@QBE?AW4TCurrentLocationOption@1@XZ @ 10 NONAME ; enum CMnMapView::TCurrentLocationOption CMnMapView::CurrentLocationOption(void) const     
	?FindAddressByCoordinateL@CMnGeocoder@@QAEXABVCPosLandmark@@AAVTRequestStatus@@@Z @ 11 NONAME ; void CMnGeocoder::FindAddressByCoordinateL(class CPosLandmark const &, class TRequestStatus &) 
	?FindCoordinateByAddressL@CMnGeocoder@@QAEXABVCPosLandmark@@AAVTRequestStatus@@@Z @ 12 NONAME ; void CMnGeocoder::FindCoordinateByAddressL(class CPosLandmark const &, class TRequestStatus &) 
	?FindCoordinateByAddressL@CMnGeocoder@@QAEXABVTDesC16@@AAVTRequestStatus@@@Z @ 13 NONAME ; void CMnGeocoder::FindCoordinateByAddressL(class TDesC16 const &, class TRequestStatus &) 
	?FindProvidersL@MnProviderFinder@@SAXAAV?$RPointerArray@VCMnProvider@@@@@Z @ 14 NONAME ; void MnProviderFinder::FindProvidersL(class RPointerArray<class CMnProvider> &)    
	?FindProvidersL@MnProviderFinder@@SAXAAV?$RPointerArray@VCMnProvider@@@@K@Z @ 15 NONAME ; void MnProviderFinder::FindProvidersL(class RPointerArray<class CMnProvider> &, unsigned long)  
	?GetName@CMnProvider@@QBEXAAVTPtrC16@@@Z @ 16 NONAME ; void CMnProvider::GetName(class TPtrC16 &) const 
	?GetShortName@CMnProvider@@QBEXAAVTPtrC16@@@Z @ 17 NONAME ; void CMnProvider::GetShortName(class TPtrC16 &) const 
	?GetVendorName@CMnProvider@@QBEXAAVTPtrC16@@@Z @ 18 NONAME ; void CMnProvider::GetVendorName(class TPtrC16 &) const 
	?NavigateToL@CMnNavigator@@QAEXABVCPosLandmark@@@Z @ 19 NONAME ; void CMnNavigator::NavigateToL(class CPosLandmark const &) 
	?NewChainedL@CMnGeocoder@@SAPAV1@AAVCMnProvider@@@Z @ 20 NONAME ; class CMnGeocoder * CMnGeocoder::NewChainedL(class CMnProvider &)
	?NewChainedL@CMnMapView@@SAPAV1@AAVCMnProvider@@@Z @ 21 NONAME ; class CMnMapView * CMnMapView::NewChainedL(class CMnProvider &)
	?NewChainedL@CMnNavigator@@SAPAV1@AAVCMnProvider@@@Z @ 22 NONAME ; class CMnNavigator * CMnNavigator::NewChainedL(class CMnProvider &)
	?NewL@CMnGeocoder@@SAPAV1@AAVCMnProvider@@@Z @ 23 NONAME ; class CMnGeocoder * CMnGeocoder::NewL(class CMnProvider &)
	?NewL@CMnMapView@@SAPAV1@AAVCMnProvider@@@Z @ 24 NONAME ; class CMnMapView * CMnMapView::NewL(class CMnProvider &)
	?NewL@CMnNavigator@@SAPAV1@AAVCMnProvider@@@Z @ 25 NONAME ; class CMnNavigator * CMnNavigator::NewL(class CMnProvider &)
	?Options@CMnGeocoder@@QBEKXZ @ 26 NONAME ; unsigned long CMnGeocoder::Options(void) const  
	?Options@CMnMapView@@QBEKXZ @ 27 NONAME ; unsigned long CMnMapView::Options(void) const  
	?ResetLandmarksToShow@CMnMapView@@QAEXXZ @ 28 NONAME ; void CMnMapView::ResetLandmarksToShow(void)    
	?ResetMapArea@CMnMapView@@QAEXXZ @ 29 NONAME ; void CMnMapView::ResetMapArea(void)    
	?RetrieveGeocodingResultL@CMnGeocoder@@QAEXAAVCPosLandmark@@@Z @ 30 NONAME ; void CMnGeocoder::RetrieveGeocodingResultL(class CPosLandmark &)  
	?RetrieveSelectionResultL@CMnMapView@@QAEPAVCPosLandmark@@XZ @ 31 NONAME ; class CPosLandmark * CMnMapView::RetrieveSelectionResultL(void)  
	?RetrieveSelectionResultL@CMnMapView@@QAEXAAH@Z @ 32 NONAME ; void CMnMapView::RetrieveSelectionResultL(int &)     
	?RetrieveSelectionResultL@CMnMapView@@QAEXAAKAAPAVHBufC16@@@Z @ 33 NONAME ; void CMnMapView::RetrieveSelectionResultL(unsigned long &, class HBufC16 * &)
	?SelectFromMapL@CMnMapView@@QAEXAAVTRequestStatus@@@Z @ 34 NONAME ; void CMnMapView::SelectFromMapL(class TRequestStatus &)    
	?SelectionResultType@CMnMapView@@QBE?AW4TSelectionResultType@1@XZ @ 35 NONAME ; enum CMnMapView::TSelectionResultType CMnMapView::SelectionResultType(void) const    
	?ServiceUid@RMnGeocodingServiceClient@@EBE?AVTUid@@XZ @ 36 NONAME ; class TUid RMnGeocodingServiceClient::ServiceUid(void) const    
	?SetCurrentLocationOption@CMnMapView@@QAEXW4TCurrentLocationOption@1@@Z @ 37 NONAME ; void CMnMapView::SetCurrentLocationOption(enum CMnMapView::TCurrentLocationOption)     
	?SetCustomRequestTextL@CMnMapView@@QAEXABVTDesC16@@@Z @ 38 NONAME ; void CMnMapView::SetCustomRequestTextL(class TDesC16 const &)   
	?SetMapAreaL@CMnMapView@@QAEXABVTCoordinate@@N@Z @ 39 NONAME ; void CMnMapView::SetMapAreaL(class TCoordinate const &, double)  
	?SetOptions@CMnGeocoder@@QAEXK@Z @ 40 NONAME ; void CMnGeocoder::SetOptions(unsigned long)     
	?SetOptions@CMnMapView@@QAEXK@Z @ 41 NONAME ; void CMnMapView::SetOptions(unsigned long)     
	?SetUseDefaultRequestText@CMnMapView@@QAEXXZ @ 42 NONAME ; void CMnMapView::SetUseDefaultRequestText(void)      
	?ShowCurrentLocationL@CMnMapView@@QAEXXZ @ 43 NONAME ; void CMnMapView::ShowCurrentLocationL(void)      
	?ShowMapL@CMnMapView@@QAEXXZ @ 44 NONAME ; void CMnMapView::ShowMapL(void)      
	?SupportedFeatures@CMnProvider@@UBEKW4TService@1@@Z @ 45 NONAME ; unsigned long CMnProvider::SupportedFeatures(enum CMnProvider::TService) const   
	?SupportedServices@CMnProvider@@QBEKXZ @ 46 NONAME ; unsigned long CMnProvider::SupportedServices(void) const    
	?Uid@CMnProvider@@QBE?AVTUid@@XZ @ 47 NONAME ; class TUid CMnProvider::Uid(void) const    
	?Version@CMnProvider@@QBE?AVTVersion@@XZ @ 48 NONAME ; class TVersion CMnProvider::Version(void) const       
	?FindLocalizedResourceFileL@MnUtils@@SAXAAVRFs@@ABVTDesC16@@AAV?$TBuf@$0BAA@@@@Z @ 49 NONAME ; void MnUtils::FindLocalizedResourceFileL(class RFs &, class TDesC16 const &, class TBuf<256> &)
	?FindResourceFileL@MnUtils@@SAXAAVRFs@@ABVTDesC16@@AAV?$TBuf@$0BAA@@@@Z @ 50 NONAME ; void MnUtils::FindResourceFileL(class RFs &, class TDesC16 const &, class TBuf<256> &)
	?SetExitObserverL@CMnGeocoder@@QAEXAAVMAknServerAppExitObserver@@@Z @ 51 NONAME ; void CMnGeocoder::SetExitObserverL(class MAknServerAppExitObserver &)       
	?SetExitObserverL@CMnMapView@@QAEXAAVMAknServerAppExitObserver@@@Z @ 52 NONAME ; void CMnMapView::SetExitObserverL(class MAknServerAppExitObserver &)       
	?SetExitObserverL@CMnNavigator@@QAEXAAVMAknServerAppExitObserver@@@Z @ 53 NONAME ; void CMnNavigator::SetExitObserverL(class MAknServerAppExitObserver &)       
	?RemoveExitObserver@CMnGeocoder@@QAEXXZ @ 54 NONAME ; void CMnGeocoder::RemoveExitObserver(void)         
	?RemoveExitObserver@CMnMapView@@QAEXXZ @ 55 NONAME ; void CMnMapView::RemoveExitObserver(void)         
	?RemoveExitObserver@CMnNavigator@@QAEXXZ @ 56 NONAME ; void CMnNavigator::RemoveExitObserver(void)         
	??0TMnMapImageParams@@QAE@XZ @ 57 NONAME ; TMnMapImageParams::TMnMapImageParams(void)
	??1CMnMapImage@@UAE@XZ @ 58 NONAME ; CMnMapImage::~CMnMapImage(void)
	?CancelRendering@CMnMapImage@@QAEXXZ @ 59 NONAME ; void CMnMapImage::CancelRendering(void)
	?GetImageCoordinate@CMnMapImage@@QBEHABVTCoordinate@@AAVTPoint@@@Z @ 60 NONAME ; int CMnMapImage::GetImageCoordinate(class TCoordinate const &, class TPoint &) const
	?GetWorldCoordinate@CMnMapImage@@QBEHABVTPoint@@AAVTCoordinate@@@Z @ 61 NONAME ; int CMnMapImage::GetWorldCoordinate(class TPoint const &, class TCoordinate &) const
	?MapImageParams@CMnMapImage@@QAEAAVTMnMapImageParams@@XZ @ 62 NONAME ; class TMnMapImageParams & CMnMapImage::MapImageParams(void)
	?MapImageParams@CMnMapImage@@QBEABVTMnMapImageParams@@XZ @ 63 NONAME ; class TMnMapImageParams const & CMnMapImage::MapImageParams(void) const
	?NewL@CMnMapImage@@SAPAV1@AAVCMnProvider@@@Z @ 64 NONAME ; class CMnMapImage * CMnMapImage::NewL(class CMnProvider &)
	?RenderL@CMnMapImage@@QAEXAAVCFbsBitmap@@AAVMMnMapImageRenderCallback@@@Z @ 65 NONAME ; void CMnMapImage::RenderL(class CFbsBitmap &, class MMnMapImageRenderCallback &)
	?RenderL@CMnMapImage@@QAEXAAVCFbsBitmap@@AAVTRequestStatus@@@Z @ 66 NONAME ; void CMnMapImage::RenderL(class CFbsBitmap &, class TRequestStatus &)
	?ServiceUid@RMnMapImageServiceClient@@EBE?AVTUid@@XZ @ 67 NONAME ; class TUid RMnMapImageServiceClient::ServiceUid(void) const
	?SetMapImageParams@CMnMapImage@@QAEXAAVTMnMapImageParams@@@Z @ 68 NONAME ; void CMnMapImage::SetMapImageParams(class TMnMapImageParams &)
	?SetShowOptions@CMnMapImage@@QAEXABK@Z @ 69 NONAME ; void CMnMapImage::SetShowOptions(unsigned long const &)
	?SetTargetOrigin@CMnMapImage@@QAEXABVTPoint@@@Z @ 70 NONAME ; void CMnMapImage::SetTargetOrigin(class TPoint const &)
	?ShowOptions@CMnMapImage@@QBEKXZ @ 71 NONAME ; unsigned long CMnMapImage::ShowOptions(void) const
	?SupportedImageTypes@CMnMapImage@@QAEKXZ @ 72 NONAME ; unsigned long CMnMapImage::SupportedImageTypes(void)
	?TargetOrigin@CMnMapImage@@QAE?AVTPoint@@XZ @ 73 NONAME ; class TPoint CMnMapImage::TargetOrigin(void)
	?MapImageParams@CMnCoordinateConverterBase@@QBEABVTMnMapImageParams@@XZ @ 74 NONAME ; class TMnMapImageParams const & CMnCoordinateConverterBase::MapImageParams(void) const
	??0CMnCoordinateConverterBase@@IAE@XZ @ 75 NONAME ; CMnCoordinateConverterBase::CMnCoordinateConverterBase(void)
	??1CMnCoordinateConverterBase@@UAE@XZ @ 76 NONAME ; CMnCoordinateConverterBase::~CMnCoordinateConverterBase(void)
	?RemoveExitObserver@CMnMapImage@@QAEXXZ @ 77 NONAME ; void CMnMapImage::RemoveExitObserver(void)
	?SetExitObserverL@CMnMapImage@@QAEXAAVMAknServerAppExitObserver@@@Z @ 78 NONAME ; void CMnMapImage::SetExitObserverL(class MAknServerAppExitObserver &)

