EXPORTS
	??0CMnGeocodingServiceBase@@IAE@XZ @ 1 NONAME ; CMnGeocodingServiceBase::CMnGeocodingServiceBase(void)
	??0CMnMapViewServiceBase@@IAE@XZ @ 2 NONAME ; CMnMapViewServiceBase::CMnMapViewServiceBase(void)
	??0CMnNavigationServiceBase@@IAE@XZ @ 3 NONAME ; CMnNavigationServiceBase::CMnNavigationServiceBase(void)
	??1CMnGeocodingServiceBase@@MAE@XZ @ 4 NONAME ; CMnGeocodingServiceBase::~CMnGeocodingServiceBase(void)
	??1CMnMapViewServiceBase@@MAE@XZ @ 5 NONAME ; CMnMapViewServiceBase::~CMnMapViewServiceBase(void)
	??1CMnNavigationServiceBase@@MAE@XZ @ 6 NONAME ; CMnNavigationServiceBase::~CMnNavigationServiceBase(void)
	?AreaRadius@CMnMapViewServiceBase@@QAENXZ @ 7 NONAME ; double CMnMapViewServiceBase::AreaRadius(void)
	?BaseConstructL@CMnGeocodingServiceBase@@IAEXXZ @ 8 NONAME ; void CMnGeocodingServiceBase::BaseConstructL(void)
	?BaseConstructL@CMnMapViewServiceBase@@IAEXXZ @ 9 NONAME ; void CMnMapViewServiceBase::BaseConstructL(void)
	?BaseConstructL@CMnNavigationServiceBase@@IAEXXZ @ 10 NONAME ; void CMnNavigationServiceBase::BaseConstructL(void)
	?CompleteGeocodingRequestL@CMnGeocodingServiceBase@@QAEXABVCPosLandmark@@@Z @ 11 NONAME ; void CMnGeocodingServiceBase::CompleteGeocodingRequestL(class CPosLandmark const &)
	?CompleteRequest@CMnServiceBase@@QAEXH@Z @ 12 NONAME ; void CMnServiceBase::CompleteRequest(int)
	?CompleteSelectionRequest@CMnMapViewServiceBase@@QAEXH@Z @ 13 NONAME ; void CMnMapViewServiceBase::CompleteSelectionRequest(int)
	?CompleteSelectionRequest@CMnMapViewServiceBase@@QAEXKH@Z @ 14 NONAME ; void CMnMapViewServiceBase::CompleteSelectionRequest(unsigned long, int)
	?CompleteSelectionRequestL@CMnMapViewServiceBase@@QAEXABVCPosLandmark@@@Z @ 15 NONAME ; void CMnMapViewServiceBase::CompleteSelectionRequestL(class CPosLandmark const &)
	?CurrentLocationOption@CMnMapViewServiceBase@@QAE?AW4TCurrentLocationOption@CMnMapView@@XZ @ 16 NONAME ; enum CMnMapView::TCurrentLocationOption CMnMapViewServiceBase::CurrentLocationOption(void)
	?GetAreaCentralPoint@CMnMapViewServiceBase@@QAEXAAVTCoordinate@@@Z @ 17 NONAME ; void CMnMapViewServiceBase::GetAreaCentralPoint(class TCoordinate &)
	?IsAreaCentralPointSet@CMnMapViewServiceBase@@QAEHXZ @ 18 NONAME ; int CMnMapViewServiceBase::IsAreaCentralPointSet(void)
	?LandmarksToShow@CMnMapViewServiceBase@@QAE?AV?$TArray@PB$$CBVCPosLandmark@@@@XZ @ 19 NONAME ; class TArray<class CPosLandmark const *> CMnMapViewServiceBase::LandmarksToShow(void)
	?LandmarksToShowDatabases@CMnMapViewServiceBase@@QAE?AV?$TArray@PB$$CBVHBufC16@@@@XZ @ 20 NONAME ; class TArray<class HBufC16 const *> CMnMapViewServiceBase::LandmarksToShowDatabases(void)
	?LinkedLandmarksToShow@CMnMapViewServiceBase@@QAE?AV?$TArray@K@@H@Z @ 21 NONAME ; class TArray<unsigned long> CMnMapViewServiceBase::LinkedLandmarksToShow(int)
	?Options@CMnGeocodingServiceBase@@QBEKXZ @ 22 NONAME ; unsigned long CMnGeocodingServiceBase::Options(void) const
	?Options@CMnMapViewServiceBase@@QAEKXZ @ 23 NONAME ; unsigned long CMnMapViewServiceBase::Options(void)
	?SelectionRequestText@CMnMapViewServiceBase@@QAE?AVTPtrC16@@XZ @ 24 NONAME ; class TPtrC16 CMnMapViewServiceBase::SelectionRequestText(void)
	?ServiceError@CMnServiceBase@@MAEXABVRMessage2@@H@Z @ 25 NONAME ; void CMnServiceBase::ServiceError(class RMessage2 const &, int)
	?ServiceL@CMnGeocodingServiceBase@@MAEXABVRMessage2@@@Z @ 26 NONAME ; void CMnGeocodingServiceBase::ServiceL(class RMessage2 const &)
	?ServiceL@CMnMapViewServiceBase@@MAEXABVRMessage2@@@Z @ 27 NONAME ; void CMnMapViewServiceBase::ServiceL(class RMessage2 const &)
	?ServiceL@CMnNavigationServiceBase@@MAEXABVRMessage2@@@Z @ 28 NONAME ; void CMnNavigationServiceBase::ServiceL(class RMessage2 const &)
	??0CMnMapImageServiceBase@@IAE@XZ @ 29 NONAME ; CMnMapImageServiceBase::CMnMapImageServiceBase(void)
	??1CMnMapImageServiceBase@@MAE@XZ @ 30 NONAME ; CMnMapImageServiceBase::~CMnMapImageServiceBase(void)
	?BaseConstructL@CMnMapImageServiceBase@@IAEXXZ @ 31 NONAME ; void CMnMapImageServiceBase::BaseConstructL(void)
	?CompleteRendering@CMnMapImageServiceBase@@QAEXXZ @ 32 NONAME ; void CMnMapImageServiceBase::CompleteRendering(void)
	?MapImageParams@CMnMapImageServiceBase@@QAEAAVTMnMapImageParams@@XZ @ 33 NONAME ; class TMnMapImageParams & CMnMapImageServiceBase::MapImageParams(void)
	?MapImageParams@CMnMapImageServiceBase@@QBEABVTMnMapImageParams@@XZ @ 34 NONAME ; class TMnMapImageParams const & CMnMapImageServiceBase::MapImageParams(void) const
	?ServiceL@CMnMapImageServiceBase@@MAEXABVRMessage2@@@Z @ 35 NONAME ; void CMnMapImageServiceBase::ServiceL(class RMessage2 const &)
	?SetMapImageParams@CMnMapImageServiceBase@@QAEXABVTMnMapImageParams@@@Z @ 36 NONAME ; void CMnMapImageServiceBase::SetMapImageParams(class TMnMapImageParams const &)
	?ShowOptions@CMnMapImageServiceBase@@QBEKXZ @ 37 NONAME ; unsigned long CMnMapImageServiceBase::ShowOptions(void) const
	?TargetBitmap@CMnMapImageServiceBase@@QBEAAVCFbsBitmap@@XZ @ 38 NONAME ; class CFbsBitmap & CMnMapImageServiceBase::TargetBitmap(void) const
	?TargetRect@CMnMapImageServiceBase@@QBE?AVTRect@@XZ @ 39 NONAME ; class TRect CMnMapImageServiceBase::TargetRect(void) const

